target datalayout = "e-m:e-p270:32:32-p271:32:32-p272:64:64-i64:64-i128:128-f80:128-n8:16:32:64-S128"
target triple = "x86_64-unknown-linux-gnu"

@ClientsPeakMemInput = dso_local global [8 x i64] zeroinitializer, align 16
@ClientsPeakMemOutput = dso_local global [8 x i64] zeroinitializer, align 16

; Function Attrs: nounwind uwtable
define dso_local void @getExpansiveClientsInfo(ptr noundef %in_usage, ptr noundef %out_usage) #0 {
entry:
  %in_usage.addr = alloca ptr, align 8
  %out_usage.addr = alloca ptr, align 8
  %i = alloca i64, align 8
  %o = alloca i64, align 8
  %j = alloca i32, align 4
  store ptr %in_usage, ptr %in_usage.addr, align 8
  store ptr %out_usage, ptr %out_usage.addr, align 8
  store i64 0, ptr %i, align 8
  store i64 0, ptr %o, align 8
  store i32 0, ptr %j, align 4
  br label %for.cond

for.cond:                                         ; preds = %for.inc, %entry
  %0 = load i32, ptr %j, align 4
  %cmp = icmp slt i32 %0, 8
  br i1 %cmp, label %for.body, label %for.end

for.body:                                         ; preds = %for.cond
  %1 = load i32, ptr %j, align 4
  %idxprom = sext i32 %1 to i64
  %arrayidx = getelementptr inbounds [8 x i64], ptr @ClientsPeakMemInput, i64 0, i64 %idxprom
  %2 = load i64, ptr %arrayidx, align 8
  %3 = load i64, ptr %i, align 8
  %cmp1 = icmp ugt i64 %2, %3
  br i1 %cmp1, label %if.then, label %if.end

if.then:                                          ; preds = %for.body
  %4 = load i32, ptr %j, align 4
  %idxprom2 = sext i32 %4 to i64
  %arrayidx3 = getelementptr inbounds [8 x i64], ptr @ClientsPeakMemInput, i64 0, i64 %idxprom2
  %5 = load i64, ptr %arrayidx3, align 8
  store i64 %5, ptr %i, align 8
  br label %if.end

if.end:                                           ; preds = %if.then, %for.body
  %6 = load i32, ptr %j, align 4
  %idxprom4 = sext i32 %6 to i64
  %arrayidx5 = getelementptr inbounds [8 x i64], ptr @ClientsPeakMemOutput, i64 0, i64 %idxprom4
  %7 = load i64, ptr %arrayidx5, align 8
  %8 = load i64, ptr %o, align 8
  %cmp6 = icmp ugt i64 %7, %8
  br i1 %cmp6, label %if.then7, label %if.end10

if.then7:                                         ; preds = %if.end
  %9 = load i32, ptr %j, align 4
  %idxprom8 = sext i32 %9 to i64
  %arrayidx9 = getelementptr inbounds [8 x i64], ptr @ClientsPeakMemOutput, i64 0, i64 %idxprom8
  %10 = load i64, ptr %arrayidx9, align 8
  store i64 %10, ptr %o, align 8
  br label %if.end10

if.end10:                                         ; preds = %if.then7, %if.end
  br label %for.inc

for.inc:                                          ; preds = %if.end10
  %11 = load i32, ptr %j, align 4
  %inc = add nsw i32 %11, 1
  store i32 %inc, ptr %j, align 4
  br label %for.cond, !llvm.loop !10

for.end:                                          ; preds = %for.cond
  %12 = load i64, ptr %i, align 8
  %13 = load ptr, ptr %in_usage.addr, align 8
  store i64 %12, ptr %13, align 8
  %14 = load i64, ptr %o, align 8
  %15 = load ptr, ptr %out_usage.addr, align 8
  store i64 %14, ptr %15, align 8
  ret void
}