; Function Attrs: nofree norecurse nosync nounwind memory(read, argmem: write, inaccessiblemem: none) uwtable
define dso_local void @getExpansiveClientsInfo(ptr nocapture noundef writeonly %in_usage, ptr nocapture noundef writeonly %out_usage) local_unnamed_addr #21 {
entry:
  br label %for.body

for.body:                                         ; preds = %entry, %for.body
  %indvars.iv = phi i64 [ 0, %entry ], [ %indvars.iv.next, %for.body ]
  %o.010 = phi i64 [ 0, %entry ], [ %o.1, %for.body ]
  %i.09 = phi i64 [ 0, %entry ], [ %spec.select, %for.body ]
  %arrayidx = getelementptr inbounds [8 x i64], ptr @ClientsPeakMemInput, i64 0, i64 %indvars.iv
  %0 = load i64, ptr %arrayidx, align 8
  %spec.select = tail call i64 @llvm.umax.i64(i64 %0, i64 %i.09)
  %arrayidx5 = getelementptr inbounds [8 x i64], ptr @ClientsPeakMemOutput, i64 0, i64 %indvars.iv
  %1 = load i64, ptr %arrayidx5, align 8
  %o.1 = tail call i64 @llvm.umax.i64(i64 %1, i64 %o.010)
  %indvars.iv.next = add nuw nsw i64 %indvars.iv, 1
  %exitcond.not = icmp eq i64 %indvars.iv.next, 8
  br i1 %exitcond.not, label %for.end, label %for.body, !llvm.loop !11

for.end:                                          ; preds = %for.body
  store i64 %spec.select, ptr %in_usage, align 8
  store i64 %o.1, ptr %out_usage, align 8
  ret void
}